#include <math.h>
#include <stdio.h>
#include <stdlib.h>
#include <string.h>

int main()
{
    int a, b, c, d, e, n;
    scanf("%d",&n);
    a=(int)(n/10000);
    b=(int)(n/1000-a*10);
    c=(int)(n/100-a*100-b*10);
    d=(int)(n/10-a*1000-b*100-c*10);
    e=(int)(n-a*10000-b*1000-c*100-d*10);
    if(a!=0)
        printf("%d%d%d%d%d\n",e,d,c,b,a);
    if(a==0&&b!=0)
        printf("%d%d%d%d\n",e,d,c,b);
    if(a==0&&b==0&&c!=0)
        printf("%d%d%d\n",e,d,c);
    if(a==0&&b==0&&c==0&&d!=0)
        printf("%d%d\n",e,d);
    if(a==0&&b==0&&c==0&&d==0)
        printf("%d\n",e);
    return 0;
}