; ModuleID = '16/1087.c'
source_filename = "16/1087.c"
target datalayout = "e-m:e-p270:32:32-p271:32:32-p272:64:64-i64:64-f80:128-n8:16:32:64-S128"
target triple = "x86_64-pc-linux-gnu"

@.str = private unnamed_addr constant [3 x i8] c"%d\00", align 1
@.str.1 = private unnamed_addr constant [12 x i8] c"%d%d%d%d%d\0A\00", align 1
@.str.2 = private unnamed_addr constant [10 x i8] c"%d%d%d%d\0A\00", align 1
@.str.3 = private unnamed_addr constant [8 x i8] c"%d%d%d\0A\00", align 1
@.str.4 = private unnamed_addr constant [6 x i8] c"%d%d\0A\00", align 1
@.str.5 = private unnamed_addr constant [4 x i8] c"%d\0A\00", align 1

; Function Attrs: noinline nounwind uwtable
define dso_local i32 @main() #0 {
  %1 = alloca i32, align 4
  %2 = alloca i32, align 4
  %3 = alloca i32, align 4
  %4 = alloca i32, align 4
  %5 = alloca i32, align 4
  %6 = alloca i32, align 4
  %7 = alloca i32, align 4
  store i32 0, i32* %1, align 4
  %8 = call i32 (i8*, ...) @__isoc99_scanf(i8* getelementptr inbounds ([3 x i8], [3 x i8]* @.str, i64 0, i64 0), i32* %7)
  %9 = load i32, i32* %7, align 4
  %10 = sdiv i32 %9, 10000
  store i32 %10, i32* %2, align 4
  %11 = load i32, i32* %7, align 4
  %12 = sdiv i32 %11, 1000
  %13 = load i32, i32* %2, align 4
  %14 = mul nsw i32 %13, 10
  %15 = sub nsw i32 %12, %14
  store i32 %15, i32* %3, align 4
  %16 = load i32, i32* %7, align 4
  %17 = sdiv i32 %16, 100
  %18 = load i32, i32* %2, align 4
  %19 = mul nsw i32 %18, 100
  %20 = sub nsw i32 %17, %19
  %21 = load i32, i32* %3, align 4
  %22 = mul nsw i32 %21, 10
  %23 = sub nsw i32 %20, %22
  store i32 %23, i32* %4, align 4
  %24 = load i32, i32* %7, align 4
  %25 = sdiv i32 %24, 10
  %26 = load i32, i32* %2, align 4
  %27 = mul nsw i32 %26, 1000
  %28 = sub nsw i32 %25, %27
  %29 = load i32, i32* %3, align 4
  %30 = mul nsw i32 %29, 100
  %31 = sub nsw i32 %28, %30
  %32 = load i32, i32* %4, align 4
  %33 = mul nsw i32 %32, 10
  %34 = sub nsw i32 %31, %33
  store i32 %34, i32* %5, align 4
  %35 = load i32, i32* %7, align 4
  %36 = load i32, i32* %2, align 4
  %37 = mul nsw i32 %36, 10000
  %38 = sub nsw i32 %35, %37
  %39 = load i32, i32* %3, align 4
  %40 = mul nsw i32 %39, 1000
  %41 = sub nsw i32 %38, %40
  %42 = load i32, i32* %4, align 4
  %43 = mul nsw i32 %42, 100
  %44 = sub nsw i32 %41, %43
  %45 = load i32, i32* %5, align 4
  %46 = mul nsw i32 %45, 10
  %47 = sub nsw i32 %44, %46
  store i32 %47, i32* %6, align 4
  %48 = load i32, i32* %2, align 4
  %49 = icmp ne i32 %48, 0
  br i1 %49, label %50, label %57

50:                                               ; preds = %0
  %51 = load i32, i32* %6, align 4
  %52 = load i32, i32* %5, align 4
  %53 = load i32, i32* %4, align 4
  %54 = load i32, i32* %3, align 4
  %55 = load i32, i32* %2, align 4
  %56 = call i32 (i8*, ...) @printf(i8* getelementptr inbounds ([12 x i8], [12 x i8]* @.str.1, i64 0, i64 0), i32 %51, i32 %52, i32 %53, i32 %54, i32 %55)
  br label %57

57:                                               ; preds = %50, %0
  %58 = load i32, i32* %2, align 4
  %59 = icmp eq i32 %58, 0
  br i1 %59, label %60, label %69

60:                                               ; preds = %57
  %61 = load i32, i32* %3, align 4
  %62 = icmp ne i32 %61, 0
  br i1 %62, label %63, label %69

63:                                               ; preds = %60
  %64 = load i32, i32* %6, align 4
  %65 = load i32, i32* %5, align 4
  %66 = load i32, i32* %4, align 4
  %67 = load i32, i32* %3, align 4
  %68 = call i32 (i8*, ...) @printf(i8* getelementptr inbounds ([10 x i8], [10 x i8]* @.str.2, i64 0, i64 0), i32 %64, i32 %65, i32 %66, i32 %67)
  br label %69

69:                                               ; preds = %63, %60, %57
  %70 = load i32, i32* %2, align 4
  %71 = icmp eq i32 %70, 0
  br i1 %71, label %72, label %83

72:                                               ; preds = %69
  %73 = load i32, i32* %3, align 4
  %74 = icmp eq i32 %73, 0
  br i1 %74, label %75, label %83

75:                                               ; preds = %72
  %76 = load i32, i32* %4, align 4
  %77 = icmp ne i32 %76, 0
  br i1 %77, label %78, label %83

78:                                               ; preds = %75
  %79 = load i32, i32* %6, align 4
  %80 = load i32, i32* %5, align 4
  %81 = load i32, i32* %4, align 4
  %82 = call i32 (i8*, ...) @printf(i8* getelementptr inbounds ([8 x i8], [8 x i8]* @.str.3, i64 0, i64 0), i32 %79, i32 %80, i32 %81)
  br label %83

83:                                               ; preds = %78, %75, %72, %69
  %84 = load i32, i32* %2, align 4
  %85 = icmp eq i32 %84, 0
  br i1 %85, label %86, label %99

86:                                               ; preds = %83
  %87 = load i32, i32* %3, align 4
  %88 = icmp eq i32 %87, 0
  br i1 %88, label %89, label %99

89:                                               ; preds = %86
  %90 = load i32, i32* %4, align 4
  %91 = icmp eq i32 %90, 0
  br i1 %91, label %92, label %99

92:                                               ; preds = %89
  %93 = load i32, i32* %5, align 4
  %94 = icmp ne i32 %93, 0
  br i1 %94, label %95, label %99

95:                                               ; preds = %92
  %96 = load i32, i32* %6, align 4
  %97 = load i32, i32* %5, align 4
  %98 = call i32 (i8*, ...) @printf(i8* getelementptr inbounds ([6 x i8], [6 x i8]* @.str.4, i64 0, i64 0), i32 %96, i32 %97)
  br label %99

99:                                               ; preds = %95, %92, %89, %86, %83
  %100 = load i32, i32* %2, align 4
  %101 = icmp eq i32 %100, 0
  br i1 %101, label %102, label %114

102:                                              ; preds = %99
  %103 = load i32, i32* %3, align 4
  %104 = icmp eq i32 %103, 0
  br i1 %104, label %105, label %114

105:                                              ; preds = %102
  %106 = load i32, i32* %4, align 4
  %107 = icmp eq i32 %106, 0
  br i1 %107, label %108, label %114

108:                                              ; preds = %105
  %109 = load i32, i32* %5, align 4
  %110 = icmp eq i32 %109, 0
  br i1 %110, label %111, label %114

111:                                              ; preds = %108
  %112 = load i32, i32* %6, align 4
  %113 = call i32 (i8*, ...) @printf(i8* getelementptr inbounds ([4 x i8], [4 x i8]* @.str.5, i64 0, i64 0), i32 %112)
  br label %114

114:                                              ; preds = %111, %108, %105, %102, %99
  ret i32 0
}

declare dso_local i32 @__isoc99_scanf(i8*, ...) #1

declare dso_local i32 @printf(i8*, ...) #1


!llvm.module.flags = !{!0}
!llvm.ident = !{!1}

!0 = !{i32 1, !"wchar_size", i32 4}
!1 = !{!"clang version 10.0.0-4ubuntu1 "}
